target datalayout = "e-m:e-p270:32:32-p271:32:32-p272:64:64-i64:64-i128:128-f80:128-n8:16:32:64-S128"
target triple = "x86_64-pc-linux-gnu"

%struct._typeobject = type { %struct.PyVarObject, ptr, i64, i64, ptr, i64, ptr, ptr, ptr, ptr, ptr, ptr, ptr, ptr, ptr, ptr, ptr, ptr, ptr, i64, ptr, ptr, ptr, ptr, i64, ptr, ptr, ptr, ptr, ptr, ptr, ptr, ptr, ptr, i64, ptr, ptr, ptr, ptr, ptr, ptr, ptr, ptr, ptr, ptr, ptr, i32, ptr, ptr, i8, i16 }
%struct.PyVarObject = type { %struct._object, i64 }
%struct._object = type { %union.anon, ptr }
%union.anon = type { i64 }
%struct.anon = type { i32, i32 }

@PyLong_Type = external global %struct._typeobject, align 8
@.str.81 = private unnamed_addr constant [28 x i8] c"Py_TYPE(ob) != &PyLong_Type\00", align 1
@.str.82 = private unnamed_addr constant [28 x i8] c"../cpython/Include/object.h\00", align 1
@__PRETTY_FUNCTION__.Py_SIZE = private unnamed_addr constant [31 x i8] c"Py_ssize_t Py_SIZE(PyObject *)\00", align 1
@PyBool_Type = external global %struct._typeobject, align 8
@.str.83 = private unnamed_addr constant [28 x i8] c"Py_TYPE(ob) != &PyBool_Type\00", align 1
@PyExc_IndexError = external global ptr, align 8
@.str.159 = private unnamed_addr constant [23 x i8] c"index %zd out of range\00", align 1

; Function Attrs: alwaysinline nounwind uwtable
define internal void @Py_INCREF(ptr noundef %0) #3 {
  %2 = alloca ptr, align 8
  %3 = alloca i32, align 4
  %4 = alloca i32, align 4
  store ptr %0, ptr %2, align 8, !tbaa !3
  call void @llvm.lifetime.start.p0(i64 4, ptr %3) #9
  %5 = load ptr, ptr %2, align 8, !tbaa !3
  %6 = getelementptr inbounds nuw %struct._object, ptr %5, i32 0, i32 0
  %7 = getelementptr inbounds nuw %struct.anon, ptr %6, i32 0, i32 0
  %8 = load i32, ptr %7, align 8, !tbaa !12
  store i32 %8, ptr %3, align 4, !tbaa !10
  %9 = load i32, ptr %3, align 4, !tbaa !10
  %10 = icmp slt i32 %9, 0
  br i1 %10, label %11, label %12

11:                                               ; preds = %1
  store i32 1, ptr %4, align 4
  br label %18

12:                                               ; preds = %1
  %13 = load i32, ptr %3, align 4, !tbaa !10
  %14 = add i32 %13, 1
  %15 = load ptr, ptr %2, align 8, !tbaa !3
  %16 = getelementptr inbounds nuw %struct._object, ptr %15, i32 0, i32 0
  %17 = getelementptr inbounds nuw %struct.anon, ptr %16, i32 0, i32 0
  store i32 %14, ptr %17, align 8, !tbaa !12
  store i32 0, ptr %4, align 4
  br label %18

18:                                               ; preds = %12, %11
  call void @llvm.lifetime.end.p0(i64 4, ptr %3) #9
  %19 = load i32, ptr %4, align 4
  switch i32 %19, label %21 [
    i32 0, label %20
    i32 1, label %20
  ]

20:                                               ; preds = %18, %18
  ret void

21:                                               ; preds = %18
  unreachable
}

; Function Attrs: inlinehint nounwind uwtable
define internal ptr @_Py_TYPE(ptr noundef %0) #4 {
  %2 = alloca ptr, align 8
  store ptr %0, ptr %2, align 8, !tbaa !3
  %3 = load ptr, ptr %2, align 8, !tbaa !3
  %4 = getelementptr inbounds nuw %struct._object, ptr %3, i32 0, i32 1
  %5 = load ptr, ptr %4, align 8, !tbaa !55
  ret ptr %5
}

; Function Attrs: inlinehint nounwind uwtable
define internal ptr @_Py_NewRef(ptr noundef %0) #4 {
  %2 = alloca ptr, align 8
  store ptr %0, ptr %2, align 8, !tbaa !3
  %3 = load ptr, ptr %2, align 8, !tbaa !3
  call void @Py_INCREF(ptr noundef %3)
  %4 = load ptr, ptr %2, align 8, !tbaa !3
  ret ptr %4
}

; Function Attrs: inlinehint nounwind uwtable
define internal i64 @Py_SIZE(ptr noundef %0) #4 {
  %2 = alloca ptr, align 8
  store ptr %0, ptr %2, align 8, !tbaa !3
  %3 = load ptr, ptr %2, align 8, !tbaa !3
  %4 = call ptr @_Py_TYPE(ptr noundef %3)
  %5 = icmp ne ptr %4, @PyLong_Type
  br i1 %5, label %6, label %7

6:                                                ; preds = %1
  br label %9

7:                                                ; preds = %1
  call void @__assert_fail(ptr noundef @.str.81, ptr noundef @.str.82, i32 noundef 282, ptr noundef @__PRETTY_FUNCTION__.Py_SIZE) #11
  unreachable

8:                                                ; No predecessors!
  br label %9

9:                                                ; preds = %8, %6
  %10 = load ptr, ptr %2, align 8, !tbaa !3
  %11 = call ptr @_Py_TYPE(ptr noundef %10)
  %12 = icmp ne ptr %11, @PyBool_Type
  br i1 %12, label %13, label %14

13:                                               ; preds = %9
  br label %16

14:                                               ; preds = %9
  call void @__assert_fail(ptr noundef @.str.83, ptr noundef @.str.82, i32 noundef 283, ptr noundef @__PRETTY_FUNCTION__.Py_SIZE) #11
  unreachable

15:                                               ; No predecessors!
  br label %16

16:                                               ; preds = %15, %13
  %17 = load ptr, ptr %2, align 8, !tbaa !3
  %18 = getelementptr inbounds nuw %struct.PyVarObject, ptr %17, i32 0, i32 1
  %19 = load i64, ptr %18, align 8, !tbaa !56
  ret i64 %19
}

; Function Attrs: nounwind uwtable
define internal ptr @HeapCCollection_item(ptr noundef %0, i64 noundef %1) #0 {
  %3 = alloca ptr, align 8
  %4 = alloca ptr, align 8
  %5 = alloca i64, align 8
  %6 = alloca ptr, align 8
  %7 = alloca i32, align 4
  store ptr %0, ptr %4, align 8, !tbaa !3
  store i64 %1, ptr %5, align 8, !tbaa !53
  %8 = load i64, ptr %5, align 8, !tbaa !53
  %9 = icmp slt i64 %8, 0
  br i1 %9, label %15, label %10

10:                                               ; preds = %2
  %11 = load i64, ptr %5, align 8, !tbaa !53
  %12 = load ptr, ptr %4, align 8, !tbaa !3
  %13 = call i64 @Py_SIZE(ptr noundef %12)
  %14 = icmp sge i64 %11, %13
  br i1 %14, label %15, label %19

15:                                               ; preds = %10, %2
  %16 = load ptr, ptr @PyExc_IndexError, align 8, !tbaa !3
  %17 = load i64, ptr %5, align 8, !tbaa !53
  %18 = call ptr (ptr, ptr, ...) @PyErr_Format(ptr noundef %16, ptr noundef @.str.159, i64 noundef %17)
  store ptr %18, ptr %3, align 8
  br label %32

19:                                               ; preds = %10
  call void @llvm.lifetime.start.p0(i64 8, ptr %6) #9
  %20 = load ptr, ptr %4, align 8, !tbaa !3
  %21 = call ptr @PyObject_GetItemData(ptr noundef %20)
  store ptr %21, ptr %6, align 8, !tbaa !49
  %22 = load ptr, ptr %6, align 8, !tbaa !49
  %23 = icmp ne ptr %22, null
  br i1 %23, label %25, label %24

24:                                               ; preds = %19
  store ptr null, ptr %3, align 8
  store i32 1, ptr %7, align 4
  br label %31

25:                                               ; preds = %19
  %26 = load ptr, ptr %6, align 8, !tbaa !49
  %27 = load i64, ptr %5, align 8, !tbaa !53
  %28 = getelementptr ptr, ptr %26, i64 %27
  %29 = load ptr, ptr %28, align 8, !tbaa !3
  %30 = call ptr @_Py_NewRef(ptr noundef %29)
  store ptr %30, ptr %3, align 8
  store i32 1, ptr %7, align 4
  br label %31

31:                                               ; preds = %25, %24
  call void @llvm.lifetime.end.p0(i64 8, ptr %6) #9
  br label %32

32:                                               ; preds = %31, %15
  %33 = load ptr, ptr %3, align 8
  ret ptr %33
}