; Function Attrs: nounwind uwtable
define internal ptr @HeapCCollection_item(ptr noundef %0, i64 noundef %1) #0 {
  %3 = icmp slt i64 %1, 0
  br i1 %3, label %11, label %4

4:                                                ; preds = %2
  %5 = getelementptr i8, ptr %0, i64 8
  %.val4.i = load ptr, ptr %5, align 8, !tbaa !9
  %.not.i = icmp eq ptr %.val4.i, @PyLong_Type
  br i1 %.not.i, label %6, label %7

6:                                                ; preds = %4
  tail call void @__assert_fail(ptr noundef nonnull @.str.81, ptr noundef nonnull @.str.82, i32 noundef 282, ptr noundef nonnull @__PRETTY_FUNCTION__.Py_SIZE) #10
  unreachable

7:                                                ; preds = %4
  %.not3.i = icmp eq ptr %.val4.i, @PyBool_Type
  br i1 %.not3.i, label %8, label %Py_SIZE.exit

8:                                                ; preds = %7
  tail call void @__assert_fail(ptr noundef nonnull @.str.83, ptr noundef nonnull @.str.82, i32 noundef 283, ptr noundef nonnull @__PRETTY_FUNCTION__.Py_SIZE) #10
  unreachable

Py_SIZE.exit:                                     ; preds = %7
  %9 = getelementptr inbounds nuw i8, ptr %0, i64 16
  %10 = load i64, ptr %9, align 8, !tbaa !49
  %.not = icmp slt i64 %1, %10
  br i1 %.not, label %14, label %11

11:                                               ; preds = %Py_SIZE.exit, %2
  %12 = load ptr, ptr @PyExc_IndexError, align 8, !tbaa !23
  %13 = tail call ptr (ptr, ptr, ...) @PyErr_Format(ptr noundef %12, ptr noundef nonnull @.str.159, i64 noundef %1) #8
  br label %_Py_NewRef.exit

14:                                               ; preds = %Py_SIZE.exit
  %15 = tail call ptr @PyObject_GetItemData(ptr noundef nonnull %0) #8
  %.not10 = icmp eq ptr %15, null
  br i1 %.not10, label %_Py_NewRef.exit, label %16

16:                                               ; preds = %14
  %17 = getelementptr ptr, ptr %15, i64 %1
  %18 = load ptr, ptr %17, align 8, !tbaa !23
  %19 = load i32, ptr %18, align 8, !tbaa !8
  %20 = icmp slt i32 %19, 0
  br i1 %20, label %_Py_NewRef.exit, label %21

21:                                               ; preds = %16
  %22 = add nuw i32 %19, 1
  store i32 %22, ptr %18, align 8, !tbaa !8
  br label %_Py_NewRef.exit

_Py_NewRef.exit:                                  ; preds = %21, %16, %14, %11
  %.0 = phi ptr [ %13, %11 ], [ null, %14 ], [ %18, %16 ], [ %18, %21 ]
  ret ptr %.0
}